target datalayout = "e-m:e-p270:32:32-p271:32:32-p272:64:64-i64:64-i128:128-f80:128-n8:16:32:64-S128"
target triple = "x86_64-pc-linux-gnu"

%struct.reattach_tasks_response_msg = type { ptr, i32, i32, ptr, ptr, ptr }
%struct.epilog_complete_msg = type { i32, i32, ptr }
%struct.job_step_stat_t = type { ptr, i32, i32, ptr }
%struct.job_id_response_msg = type { i32, i32 }
%struct.return_code_msg = type { i32 }

@.str.414 = private unnamed_addr constant [43 x i8] c"don't know the rc for type %u returning %u\00", align 1

; Function Attrs: nounwind uwtable
define dso_local i32 @slurm_get_return_code(i32 noundef %0, ptr noundef %1) #0 {
  %3 = alloca i32, align 4
  %4 = alloca ptr, align 8
  %5 = alloca i32, align 4
  store i32 %0, ptr %3, align 4
  store ptr %1, ptr %4, align 8
  call void @llvm.lifetime.start.p0(i64 4, ptr %5) #11
  store i32 0, ptr %5, align 4
  %6 = load i32, ptr %3, align 4
  switch i32 %6, label %30 [
    i32 6012, label %7
    i32 5020, label %11
    i32 6008, label %15
    i32 2014, label %19
    i32 8001, label %23
    i32 1016, label %27
    i32 1018, label %28
    i32 9001, label %29
  ]

7:                                                ; preds = %2
  %8 = load ptr, ptr %4, align 8
  %9 = getelementptr inbounds nuw %struct.epilog_complete_msg, ptr %8, i32 0, i32 1
  %10 = load i32, ptr %9, align 4
  store i32 %10, ptr %5, align 4
  br label %34

11:                                               ; preds = %2
  %12 = load ptr, ptr %4, align 8
  %13 = getelementptr inbounds nuw %struct.job_step_stat_t, ptr %12, i32 0, i32 2
  %14 = load i32, ptr %13, align 4
  store i32 %14, ptr %5, align 4
  br label %34

15:                                               ; preds = %2
  %16 = load ptr, ptr %4, align 8
  %17 = getelementptr inbounds nuw %struct.reattach_tasks_response_msg, ptr %16, i32 0, i32 1
  %18 = load i32, ptr %17, align 8
  store i32 %18, ptr %5, align 4
  br label %34

19:                                               ; preds = %2
  %20 = load ptr, ptr %4, align 8
  %21 = getelementptr inbounds nuw %struct.job_id_response_msg, ptr %20, i32 0, i32 1
  %22 = load i32, ptr %21, align 4
  store i32 %22, ptr %5, align 4
  br label %34

23:                                               ; preds = %2
  %24 = load ptr, ptr %4, align 8
  %25 = getelementptr inbounds nuw %struct.return_code_msg, ptr %24, i32 0, i32 0
  %26 = load i32, ptr %25, align 4
  store i32 %26, ptr %5, align 4
  br label %34

27:                                               ; preds = %2
  store i32 0, ptr %5, align 4
  br label %34

28:                                               ; preds = %2
  store i32 0, ptr %5, align 4
  br label %34

29:                                               ; preds = %2
  store i32 1001, ptr %5, align 4
  br label %34

30:                                               ; preds = %2
  %31 = load i32, ptr %3, align 4
  %32 = load i32, ptr %5, align 4
  %33 = call i32 (ptr, ...) @error(ptr noundef @.str.414, i32 noundef %31, i32 noundef %32)
  br label %34

34:                                               ; preds = %30, %29, %28, %27, %23, %19, %15, %11, %7
  %35 = load i32, ptr %5, align 4
  call void @llvm.lifetime.end.p0(i64 4, ptr %5) #11
  ret i32 %35
}