; Function Attrs: nounwind uwtable
define dso_local i32 @slurm_get_return_code(i32 noundef %0, ptr noundef readonly captures(none) %1) local_unnamed_addr #1 {
  switch i32 %0, label %18 [
    i32 6012, label %3
    i32 5020, label %6
    i32 6008, label %9
    i32 2014, label %12
    i32 8001, label %15
    i32 1016, label %20
    i32 1018, label %20
    i32 9001, label %17
  ]

3:                                                ; preds = %2
  %4 = getelementptr inbounds nuw i8, ptr %1, i64 4
  %5 = load i32, ptr %4, align 4
  br label %20

6:                                                ; preds = %2
  %7 = getelementptr inbounds nuw i8, ptr %1, i64 12
  %8 = load i32, ptr %7, align 4
  br label %20

9:                                                ; preds = %2
  %10 = getelementptr inbounds nuw i8, ptr %1, i64 8
  %11 = load i32, ptr %10, align 8
  br label %20

12:                                               ; preds = %2
  %13 = getelementptr inbounds nuw i8, ptr %1, i64 4
  %14 = load i32, ptr %13, align 4
  br label %20

15:                                               ; preds = %2
  %16 = load i32, ptr %1, align 4
  br label %20

17:                                               ; preds = %2
  br label %20

18:                                               ; preds = %2
  %19 = tail call i32 (ptr, ...) @error(ptr noundef nonnull @.str.414, i32 noundef %0, i32 noundef 0) #24
  br label %20

20:                                               ; preds = %2, %2, %18, %17, %15, %12, %9, %6, %3
  %.0 = phi i32 [ 0, %18 ], [ 1001, %17 ], [ %16, %15 ], [ %14, %12 ], [ %11, %9 ], [ %8, %6 ], [ %5, %3 ], [ 0, %2 ], [ 0, %2 ]
  ret i32 %.0
}